; Function Attrs: nounwind uwtable
define range(i32 0, 2) i32 @OSSL_PARAM_BLD_push_utf8_ptr(ptr noundef captures(none) %0, ptr noundef %1, ptr noundef %2, i64 noundef %3) local_unnamed_addr #0 {
  %5 = icmp eq i64 %3, 0
  br i1 %5, label %6, label %8

6:                                                ; preds = %4
  %7 = tail call i64 @strlen(ptr noundef nonnull dereferenceable(1) %2) #8
  br label %8

8:                                                ; preds = %6, %4
  %.08 = phi i64 [ %7, %6 ], [ %3, %4 ]
  %9 = tail call noalias ptr @CRYPTO_zalloc(i64 noundef 56, ptr noundef nonnull @.str, i32 noundef 55) #7
  %10 = icmp eq ptr %9, null
  br i1 %10, label %param_push.exit.thread, label %11

11:                                               ; preds = %8
  store ptr %1, ptr %9, align 8, !tbaa !14
  %12 = getelementptr inbounds nuw i8, ptr %9, i64 8
  store i32 6, ptr %12, align 8, !tbaa !18
  %13 = getelementptr inbounds nuw i8, ptr %9, i64 16
  store i64 %.08, ptr %13, align 8, !tbaa !19
  %14 = tail call i64 @ossl_param_bytes_to_blocks(i64 noundef 8) #7
  %15 = getelementptr inbounds nuw i8, ptr %9, i64 24
  store i64 %14, ptr %15, align 8, !tbaa !20
  %16 = getelementptr inbounds nuw i8, ptr %9, i64 12
  store i32 0, ptr %16, align 4, !tbaa !21
  %17 = load i64, ptr %0, align 8, !tbaa !22
  %18 = add i64 %17, %14
  store i64 %18, ptr %0, align 8, !tbaa !22
  %19 = getelementptr inbounds nuw i8, ptr %0, i64 16
  %20 = load ptr, ptr %19, align 8, !tbaa !3
  %21 = tail call i32 @OPENSSL_sk_push(ptr noundef %20, ptr noundef nonnull %9) #7
  %22 = icmp slt i32 %21, 1
  br i1 %22, label %23, label %param_push.exit

23:                                               ; preds = %11
  tail call void @CRYPTO_free(ptr noundef nonnull %9, ptr noundef nonnull @.str, i32 noundef 68) #7
  br label %param_push.exit.thread

param_push.exit:                                  ; preds = %11
  %24 = getelementptr inbounds nuw i8, ptr %9, i64 40
  store ptr %2, ptr %24, align 8, !tbaa !28
  br label %param_push.exit.thread

param_push.exit.thread:                           ; preds = %23, %8, %param_push.exit
  %.0 = phi i32 [ 1, %param_push.exit ], [ 0, %8 ], [ 0, %23 ]
  ret i32 %.0
}